target datalayout = "e-m:e-p270:32:32-p271:32:32-p272:64:64-i64:64-i128:128-f80:128-n8:16:32:64-S128"
target triple = "x86_64-pc-linux-gnu"

%struct.CombinationGenerator = type { i32, i32, i32, i32, ptr }

; Function Attrs: nounwind uwtable
define internal void @generate_combinations_recurse(ptr noundef %0, i32 noundef %1, i32 noundef %2, ptr noundef %3) #0 {
  %5 = alloca ptr, align 8
  %6 = alloca i32, align 4
  %7 = alloca i32, align 4
  %8 = alloca ptr, align 8
  %9 = alloca i32, align 4
  store ptr %0, ptr %5, align 8
  store i32 %1, ptr %6, align 4
  store i32 %2, ptr %7, align 4
  store ptr %3, ptr %8, align 8
  %10 = load i32, ptr %6, align 4
  %11 = load ptr, ptr %5, align 8
  %12 = getelementptr inbounds nuw %struct.CombinationGenerator, ptr %11, i32 0, i32 0
  %13 = load i32, ptr %12, align 8
  %14 = icmp slt i32 %10, %13
  br i1 %14, label %15, label %39

15:                                               ; preds = %4
  call void @llvm.lifetime.start.p0(i64 4, ptr %9) #7
  %16 = load i32, ptr %7, align 4
  store i32 %16, ptr %9, align 4
  br label %17

17:                                               ; preds = %35, %15
  %18 = load i32, ptr %9, align 4
  %19 = load ptr, ptr %5, align 8
  %20 = getelementptr inbounds nuw %struct.CombinationGenerator, ptr %19, i32 0, i32 1
  %21 = load i32, ptr %20, align 4
  %22 = icmp slt i32 %18, %21
  br i1 %22, label %23, label %38

23:                                               ; preds = %17
  %24 = load i32, ptr %9, align 4
  %25 = load ptr, ptr %8, align 8
  %26 = load i32, ptr %6, align 4
  %27 = sext i32 %26 to i64
  %28 = getelementptr inbounds i32, ptr %25, i64 %27
  store i32 %24, ptr %28, align 4
  %29 = load ptr, ptr %5, align 8
  %30 = load i32, ptr %6, align 4
  %31 = add i32 %30, 1
  %32 = load i32, ptr %9, align 4
  %33 = add i32 %32, 1
  %34 = load ptr, ptr %8, align 8
  call void @generate_combinations_recurse(ptr noundef %29, i32 noundef %31, i32 noundef %33, ptr noundef %34)
  br label %35

35:                                               ; preds = %23
  %36 = load i32, ptr %9, align 4
  %37 = add i32 %36, 1
  store i32 %37, ptr %9, align 4
  br label %17, !llvm.loop !20

38:                                               ; preds = %17
  call void @llvm.lifetime.end.p0(i64 4, ptr %9) #7
  br label %62

39:                                               ; preds = %4
  %40 = load ptr, ptr %5, align 8
  %41 = getelementptr inbounds nuw %struct.CombinationGenerator, ptr %40, i32 0, i32 4
  %42 = load ptr, ptr %41, align 8
  %43 = load ptr, ptr %5, align 8
  %44 = getelementptr inbounds nuw %struct.CombinationGenerator, ptr %43, i32 0, i32 0
  %45 = load i32, ptr %44, align 8
  %46 = load ptr, ptr %5, align 8
  %47 = getelementptr inbounds nuw %struct.CombinationGenerator, ptr %46, i32 0, i32 2
  %48 = load i32, ptr %47, align 8
  %49 = mul i32 %45, %48
  %50 = sext i32 %49 to i64
  %51 = getelementptr inbounds i32, ptr %42, i64 %50
  %52 = load ptr, ptr %8, align 8
  %53 = load ptr, ptr %5, align 8
  %54 = getelementptr inbounds nuw %struct.CombinationGenerator, ptr %53, i32 0, i32 0
  %55 = load i32, ptr %54, align 8
  %56 = sext i32 %55 to i64
  %57 = mul i64 %56, 4
  call void @llvm.memcpy.p0.p0.i64(ptr align 4 %51, ptr align 4 %52, i64 %57, i1 false)
  %58 = load ptr, ptr %5, align 8
  %59 = getelementptr inbounds nuw %struct.CombinationGenerator, ptr %58, i32 0, i32 2
  %60 = load i32, ptr %59, align 8
  %61 = add i32 %60, 1
  store i32 %61, ptr %59, align 8
  br label %62

62:                                               ; preds = %38, %39
  ret void
}