; Function Attrs: nofree nosync nounwind memory(readwrite, inaccessiblemem: none) uwtable
define internal fastcc void @generate_combinations_recurse(ptr noundef captures(none) %0, i32 noundef %1, i32 noundef %2, ptr noundef captures(none) %3) unnamed_addr #7 {
  %5 = load i32, ptr %0, align 8
  %6 = icmp slt i32 %1, %5
  br i1 %6, label %.preheader, label %17

.preheader:                                       ; preds = %4
  %7 = getelementptr inbounds nuw i8, ptr %0, i64 4
  %8 = load i32, ptr %7, align 4
  %9 = icmp slt i32 %2, %8
  br i1 %9, label %.lr.ph, label %.loopexit

.lr.ph:                                           ; preds = %.preheader
  %10 = sext i32 %1 to i64
  %11 = getelementptr inbounds i32, ptr %3, i64 %10
  %12 = add nsw i32 %1, 1
  br label %13

13:                                               ; preds = %.lr.ph, %13
  %.020 = phi i32 [ %2, %.lr.ph ], [ %14, %13 ]
  store i32 %.020, ptr %11, align 4
  %14 = add nsw i32 %.020, 1
  tail call fastcc void @generate_combinations_recurse(ptr noundef nonnull %0, i32 noundef %12, i32 noundef %14, ptr noundef %3)
  %15 = load i32, ptr %7, align 4
  %16 = icmp slt i32 %14, %15
  br i1 %16, label %13, label %.loopexit, !llvm.loop !20

17:                                               ; preds = %4
  %18 = getelementptr inbounds nuw i8, ptr %0, i64 16
  %19 = load ptr, ptr %18, align 8
  %20 = getelementptr inbounds nuw i8, ptr %0, i64 8
  %21 = load i32, ptr %20, align 8
  %22 = mul i32 %21, %5
  %23 = sext i32 %22 to i64
  %24 = getelementptr inbounds i32, ptr %19, i64 %23
  %25 = sext i32 %5 to i64
  %26 = shl nsw i64 %25, 2
  tail call void @llvm.memcpy.p0.p0.i64(ptr align 4 %24, ptr align 4 %3, i64 %26, i1 false)
  %27 = load i32, ptr %20, align 8
  %28 = add i32 %27, 1
  store i32 %28, ptr %20, align 8
  br label %.loopexit

.loopexit:                                        ; preds = %13, %.preheader, %17
  ret void
}